target datalayout = "e-m:e-p270:32:32-p271:32:32-p272:64:64-i64:64-i128:128-f80:128-n8:16:32:64-S128"
target triple = "x86_64-pc-linux-gnu"

%"struct.faiss::IndexRowwiseMinMaxBase" = type <{ %"struct.faiss::Index.base", [4 x i8], ptr, i8, [7 x i8] }>
%"struct.faiss::Index.base" = type <{ ptr, i32, [4 x i8], i64, i8, i8, [2 x i8], i32, float }>
%"struct.faiss::Index" = type <{ ptr, i32, [4 x i8], i64, i8, i8, [2 x i8], i32, float, [4 x i8] }>

; Function Attrs: mustprogress nounwind uwtable
define linkonce_odr void @_ZN5faiss5IndexC2ElNS_10MetricTypeE(ptr noundef nonnull align 8 dereferenceable(36) %0, i64 noundef %1, i32 noundef %2) unnamed_addr #0 comdat align 2 {
  %4 = alloca ptr, align 8
  %5 = alloca i64, align 8
  %6 = alloca i32, align 4
  store ptr %0, ptr %4, align 8, !tbaa !36
  store i64 %1, ptr %5, align 8, !tbaa !9
  store i32 %2, ptr %6, align 4, !tbaa !39
  %7 = load ptr, ptr %4, align 8
  store ptr getelementptr inbounds inrange(-16, 184) ({ [25 x ptr] }, ptr @_ZTVN5faiss5IndexE, i32 0, i32 0, i32 2), ptr %7, align 8, !tbaa !27
  %8 = getelementptr inbounds nuw %"struct.faiss::Index", ptr %7, i32 0, i32 1
  %9 = load i64, ptr %5, align 8, !tbaa !9
  %10 = trunc i64 %9 to i32
  store i32 %10, ptr %8, align 8, !tbaa !37
  %11 = getelementptr inbounds nuw %"struct.faiss::Index", ptr %7, i32 0, i32 3
  store i64 0, ptr %11, align 8, !tbaa !40
  %12 = getelementptr inbounds nuw %"struct.faiss::Index", ptr %7, i32 0, i32 4
  store i8 0, ptr %12, align 8, !tbaa !41
  %13 = getelementptr inbounds nuw %"struct.faiss::Index", ptr %7, i32 0, i32 5
  store i8 1, ptr %13, align 1, !tbaa !42
  %14 = getelementptr inbounds nuw %"struct.faiss::Index", ptr %7, i32 0, i32 7
  %15 = load i32, ptr %6, align 4, !tbaa !39
  store i32 %15, ptr %14, align 4, !tbaa !38
  %16 = getelementptr inbounds nuw %"struct.faiss::Index", ptr %7, i32 0, i32 8
  store float 0.000000e+00, ptr %16, align 8, !tbaa !43
  ret void
}

; Function Attrs: mustprogress uwtable
define void @_ZN5faiss22IndexRowwiseMinMaxBaseC2EPNS_5IndexE(ptr noundef nonnull align 8 dereferenceable(49) %0, ptr noundef %1) unnamed_addr #2 align 2 {
  %3 = alloca ptr, align 8
  %4 = alloca ptr, align 8
  store ptr %0, ptr %3, align 8, !tbaa !4
  store ptr %1, ptr %4, align 8, !tbaa !36
  %5 = load ptr, ptr %3, align 8
  %6 = load ptr, ptr %4, align 8, !tbaa !36
  %7 = getelementptr inbounds nuw %"struct.faiss::Index", ptr %6, i32 0, i32 1
  %8 = load i32, ptr %7, align 8, !tbaa !37
  %9 = sext i32 %8 to i64
  %10 = load ptr, ptr %4, align 8, !tbaa !36
  %11 = getelementptr inbounds nuw %"struct.faiss::Index", ptr %10, i32 0, i32 7
  %12 = load i32, ptr %11, align 4, !tbaa !38
  call void @_ZN5faiss5IndexC2ElNS_10MetricTypeE(ptr noundef nonnull align 8 dereferenceable(36) %5, i64 noundef %9, i32 noundef %12)
  store ptr getelementptr inbounds inrange(-16, 192) ({ [26 x ptr] }, ptr @_ZTVN5faiss22IndexRowwiseMinMaxBaseE, i32 0, i32 0, i32 2), ptr %5, align 8, !tbaa !27
  %13 = getelementptr inbounds nuw %"struct.faiss::IndexRowwiseMinMaxBase", ptr %5, i32 0, i32 2
  %14 = load ptr, ptr %4, align 8, !tbaa !36
  store ptr %14, ptr %13, align 8, !tbaa !19
  %15 = getelementptr inbounds nuw %"struct.faiss::IndexRowwiseMinMaxBase", ptr %5, i32 0, i32 3
  store i8 0, ptr %15, align 8, !tbaa !31
  ret void
}

; Function Attrs: mustprogress uwtable
define void @_ZN5faiss22IndexRowwiseMinMaxFP16C2EPNS_5IndexE(ptr noundef nonnull align 8 dereferenceable(49) %0, ptr noundef %1) unnamed_addr #2 align 2 {
  %3 = alloca ptr, align 8
  %4 = alloca ptr, align 8
  store ptr %0, ptr %3, align 8, !tbaa !17
  store ptr %1, ptr %4, align 8, !tbaa !36
  %5 = load ptr, ptr %3, align 8
  %6 = load ptr, ptr %4, align 8, !tbaa !36
  call void @_ZN5faiss22IndexRowwiseMinMaxBaseC2EPNS_5IndexE(ptr noundef nonnull align 8 dereferenceable(49) %5, ptr noundef %6)
  store ptr getelementptr inbounds inrange(-16, 192) ({ [26 x ptr] }, ptr @_ZTVN5faiss22IndexRowwiseMinMaxFP16E, i32 0, i32 0, i32 2), ptr %5, align 8, !tbaa !27
  ret void
}